(dp0
S'pranav'
p1
S'pranav@gmail.com'
p2
sS'user4'
p3
S'user4@someplace.com'
p4
sS'user5'
p5
S'user5@someplace.com'
p6
sS'user2'
p7
S'user2@someplace.com'
p8
sS'user3'
p9
S'user3@someplace.com'
p10
sS'user1'
p11
S'user1@someplace.com'
p12
s.